; Function Attrs: nounwind uwtable
define noundef i32 @test_skip_c90(ptr noundef %0, ...) local_unnamed_addr #0 {
  %2 = alloca [1 x %struct.__va_list_tag], align 16
  call void @llvm.lifetime.start.p0(i64 24, ptr nonnull %2) #8
  call void @llvm.va_start.p0(ptr nonnull %2)
  %3 = call i32 (ptr, ...) @test_printf_stderr(ptr noundef nonnull @.str, ptr noundef nonnull @.str.10) #8
  %4 = call i32 (ptr, ...) @test_printf_stderr(ptr noundef nonnull @.str.6) #8
  %.not.i = icmp eq ptr %0, null
  br i1 %.not.i, label %test_fail_message_va.exit, label %5

5:                                                ; preds = %1
  %6 = call i32 @test_vprintf_stderr(ptr noundef nonnull %0, ptr noundef nonnull %2) #8
  %7 = call i32 (ptr, ...) @test_printf_stderr(ptr noundef nonnull @.str.6) #8
  br label %test_fail_message_va.exit

test_fail_message_va.exit:                        ; preds = %1, %5
  %8 = call i32 @test_flush_stderr() #8
  call void @llvm.va_end.p0(ptr nonnull %2)
  %9 = call i32 (ptr, ...) @test_printf_stderr(ptr noundef nonnull @.str.6) #8
  call void @llvm.lifetime.end.p0(i64 24, ptr nonnull %2) #8
  ret i32 123
}